target datalayout = "e-m:e-p270:32:32-p271:32:32-p272:64:64-i64:64-i128:128-f80:128-n8:16:32:64-S128"
target triple = "x86_64-unknown-linux-gnu"

%"struct.icu_75::FormattedStringBuilder::Field" = type { i8 }
%"class.icu_75::number::impl::MicroPropsGenerator" = type { ptr }
%"class.icu_75::number::impl::Modifier" = type { ptr }
%"class.icu_75::UObject" = type { ptr }
%"class.icu_75::UnicodeString" = type { %"class.icu_75::Replaceable", %"union.icu_75::UnicodeString::StackBufferOrFields" }
%"class.icu_75::Replaceable" = type { %"class.icu_75::UObject" }
%"union.icu_75::UnicodeString::StackBufferOrFields" = type { %struct.anon.0, [32 x i8] }
%struct.anon.0 = type { i16, i32, i32, ptr }
%"class.icu_75::number::impl::AdoptingSignumModifierStore" = type { ptr, [4 x ptr] }
%"class.icu_75::number::impl::AdoptingModifierStore" = type { %"class.icu_75::number::impl::ModifierStore", [8 x %"class.icu_75::number::impl::AdoptingSignumModifierStore"] }
%"class.icu_75::number::impl::ModifierStore" = type { ptr }
%"struct.icu_75::number::impl::Modifier::Parameters" = type { ptr, i32, i32 }
%"class.icu_75::number::impl::ImmutablePatternModifier" = type { %"class.icu_75::number::impl::MicroPropsGenerator", %"class.icu_75::LocalPointer", ptr, ptr }
%"class.icu_75::LocalPointer" = type { %"class.icu_75::LocalPointerBase" }
%"class.icu_75::LocalPointerBase" = type { ptr }
%"struct.icu_75::number::impl::MicroProps" = type <{ %"class.icu_75::number::impl::MicroPropsGenerator", %"struct.icu_75::number::impl::SimpleMicroProps", %"class.icu_75::number::impl::RoundingImpl", %"class.icu_75::number::impl::Padder", %"class.icu_75::number::IntegerWidth", i32, [9 x i8], [3 x i8], ptr, ptr, ptr, ptr, %struct.anon.9, %"class.icu_75::MeasureUnit", %"class.icu_75::number::impl::IntMeasures", i32, i32, i8, [7 x i8] }>
%"struct.icu_75::number::impl::SimpleMicroProps" = type { [4 x i8], %"class.icu_75::number::impl::Grouper", i8, i32, %"class.icu_75::UnicodeString", ptr }
%"class.icu_75::number::impl::Grouper" = type { i16, i16, i16, i32 }
%"class.icu_75::number::impl::RoundingImpl" = type <{ %"class.icu_75::number::Precision", i32, i8, [3 x i8] }>
%"class.icu_75::number::Precision" = type <{ i32, [4 x i8], %"union.icu_75::number::Precision::PrecisionUnion", i32, [4 x i8] }>
%"union.icu_75::number::Precision::PrecisionUnion" = type { %"struct.icu_75::number::Precision::PrecisionUnion::IncrementSettings" }
%"struct.icu_75::number::Precision::PrecisionUnion::IncrementSettings" = type { i64, i16, i16 }
%"class.icu_75::number::impl::Padder" = type { i32, %union.anon.5 }
%union.anon.5 = type { %struct.anon.6 }
%struct.anon.6 = type { i32, i32 }
%"class.icu_75::number::IntegerWidth" = type <{ %union.anon.7, i8, [3 x i8] }>
%union.anon.7 = type { i32, [4 x i8] }
%struct.anon.9 = type { %"class.icu_75::number::impl::ScientificModifier", %"class.icu_75::number::impl::EmptyModifier", %"class.icu_75::number::impl::EmptyModifier", %"class.icu_75::number::impl::MultiplierFormatHandler", %"class.icu_75::number::impl::SimpleModifier" }
%"class.icu_75::number::impl::ScientificModifier" = type { %"class.icu_75::number::impl::Modifier", i32, ptr }
%"class.icu_75::number::impl::EmptyModifier" = type <{ %"class.icu_75::number::impl::Modifier", i8, [7 x i8] }>
%"class.icu_75::number::impl::MultiplierFormatHandler" = type { %"class.icu_75::number::impl::MicroPropsGenerator", %"class.icu_75::number::Scale", ptr }
%"class.icu_75::number::Scale" = type <{ i32, [4 x i8], ptr, i32, [4 x i8] }>
%"class.icu_75::number::impl::SimpleModifier" = type { %"class.icu_75::number::impl::Modifier", %"class.icu_75::UnicodeString", %"struct.icu_75::FormattedStringBuilder::Field", i8, i32, i32, i32, %"struct.icu_75::number::impl::Modifier::Parameters" }
%"class.icu_75::MeasureUnit" = type <{ %"class.icu_75::UObject", ptr, i16, i8, [5 x i8] }>
%"class.icu_75::number::impl::IntMeasures" = type <{ %"class.icu_75::MaybeStackArray.10", i32, [4 x i8] }>
%"class.icu_75::MaybeStackArray.10" = type { ptr, i32, i8, [2 x i64] }

; Function Attrs: mustprogress nounwind uwtable
define linkonce_odr noundef ptr @_ZNK6icu_756number4impl27AdoptingSignumModifierStoreixENS1_6SignumE(ptr noundef nonnull align 8 dereferenceable(40) %this, i32 noundef %signum) #0 comdat align 2 {
entry:
  %this.addr = alloca ptr, align 8
  %signum.addr = alloca i32, align 4
  store ptr %this, ptr %this.addr, align 8
  store i32 %signum, ptr %signum.addr, align 4
  %this1 = load ptr, ptr %this.addr, align 8
  %mods = getelementptr inbounds %"class.icu_75::number::impl::AdoptingSignumModifierStore", ptr %this1, i32 0, i32 1
  %0 = load i32, ptr %signum.addr, align 4
  %idxprom = zext i32 %0 to i64
  %arrayidx = getelementptr inbounds [4 x ptr], ptr %mods, i64 0, i64 %idxprom
  %1 = load ptr, ptr %arrayidx, align 8
  ret ptr %1
}

; Function Attrs: mustprogress nounwind uwtable
define linkonce_odr noundef ptr @_ZNK6icu_756number4impl21AdoptingModifierStore24getModifierWithoutPluralENS1_6SignumE(ptr noundef nonnull align 8 dereferenceable(328) %this, i32 noundef %signum) #0 comdat align 2 {
entry:
  %this.addr = alloca ptr, align 8
  %signum.addr = alloca i32, align 4
  store ptr %this, ptr %this.addr, align 8
  store i32 %signum, ptr %signum.addr, align 4
  %this1 = load ptr, ptr %this.addr, align 8
  %mods = getelementptr inbounds %"class.icu_75::number::impl::AdoptingModifierStore", ptr %this1, i32 0, i32 1
  %arrayidx = getelementptr inbounds [8 x %"class.icu_75::number::impl::AdoptingSignumModifierStore"], ptr %mods, i64 0, i64 5
  %0 = load i32, ptr %signum.addr, align 4
  %call = call noundef ptr @_ZNK6icu_756number4impl27AdoptingSignumModifierStoreixENS1_6SignumE(ptr noundef nonnull align 8 dereferenceable(40) %arrayidx, i32 noundef %0)
  ret ptr %call
}

; Function Attrs: mustprogress nounwind uwtable
define linkonce_odr noundef ptr @_ZNK6icu_7516LocalPointerBaseINS_6number4impl21AdoptingModifierStoreEEptEv(ptr noundef nonnull align 8 dereferenceable(8) %this) #0 comdat align 2 {
entry:
  %this.addr = alloca ptr, align 8
  store ptr %this, ptr %this.addr, align 8
  %this1 = load ptr, ptr %this.addr, align 8
  %ptr = getelementptr inbounds %"class.icu_75::LocalPointerBase", ptr %this1, i32 0, i32 0
  %0 = load ptr, ptr %ptr, align 8
  ret ptr %0
}

; Function Attrs: mustprogress uwtable
define void @_ZNK6icu_756number4impl24ImmutablePatternModifier13applyToMicrosERNS1_10MicroPropsERKNS1_15DecimalQuantityER10UErrorCode(ptr noundef nonnull align 8 dereferenceable(32) %this, ptr noundef nonnull align 8 dereferenceable(489) %micros, ptr noundef nonnull align 8 dereferenceable(66) %quantity, ptr noundef nonnull align 4 dereferenceable(4) %status) #1 align 2 {
entry:
  %this.addr = alloca ptr, align 8
  %micros.addr = alloca ptr, align 8
  %quantity.addr = alloca ptr, align 8
  %status.addr = alloca ptr, align 8
  %pluralForm = alloca i32, align 4
  store ptr %this, ptr %this.addr, align 8
  store ptr %micros, ptr %micros.addr, align 8
  store ptr %quantity, ptr %quantity.addr, align 8
  store ptr %status, ptr %status.addr, align 8
  %this1 = load ptr, ptr %this.addr, align 8
  %rules = getelementptr inbounds %"class.icu_75::number::impl::ImmutablePatternModifier", ptr %this1, i32 0, i32 2
  %0 = load ptr, ptr %rules, align 8
  %cmp = icmp eq ptr %0, null
  br i1 %cmp, label %if.then, label %if.else

if.then:                                          ; preds = %entry
  %pm = getelementptr inbounds %"class.icu_75::number::impl::ImmutablePatternModifier", ptr %this1, i32 0, i32 1
  %call = call noundef ptr @_ZNK6icu_7516LocalPointerBaseINS_6number4impl21AdoptingModifierStoreEEptEv(ptr noundef nonnull align 8 dereferenceable(8) %pm)
  %1 = load ptr, ptr %quantity.addr, align 8
  %call2 = call noundef i32 @_ZNK6icu_756number4impl15DecimalQuantity6signumEv(ptr noundef nonnull align 8 dereferenceable(66) %1)
  %call3 = call noundef ptr @_ZNK6icu_756number4impl21AdoptingModifierStore24getModifierWithoutPluralENS1_6SignumE(ptr noundef nonnull align 8 dereferenceable(328) %call, i32 noundef %call2)
  %2 = load ptr, ptr %micros.addr, align 8
  %modMiddle = getelementptr inbounds %"struct.icu_75::number::impl::MicroProps", ptr %2, i32 0, i32 10
  store ptr %call3, ptr %modMiddle, align 8
  br label %if.end

if.else:                                          ; preds = %entry
  %3 = load ptr, ptr %micros.addr, align 8
  %rounder = getelementptr inbounds %"struct.icu_75::number::impl::MicroProps", ptr %3, i32 0, i32 2
  %rules4 = getelementptr inbounds %"class.icu_75::number::impl::ImmutablePatternModifier", ptr %this1, i32 0, i32 2
  %4 = load ptr, ptr %rules4, align 8
  %5 = load ptr, ptr %quantity.addr, align 8
  %6 = load ptr, ptr %status.addr, align 8
  %call5 = call noundef i32 @_ZN6icu_756number4impl5utils13getPluralSafeERKNS1_12RoundingImplEPKNS_11PluralRulesERKNS1_15DecimalQuantityER10UErrorCode(ptr noundef nonnull align 8 dereferenceable(37) %rounder, ptr noundef %4, ptr noundef nonnull align 8 dereferenceable(66) %5, ptr noundef nonnull align 4 dereferenceable(4) %6)
  store i32 %call5, ptr %pluralForm, align 4
  %pm6 = getelementptr inbounds %"class.icu_75::number::impl::ImmutablePatternModifier", ptr %this1, i32 0, i32 1
  %call7 = call noundef ptr @_ZNK6icu_7516LocalPointerBaseINS_6number4impl21AdoptingModifierStoreEEptEv(ptr noundef nonnull align 8 dereferenceable(8) %pm6)
  %7 = load ptr, ptr %quantity.addr, align 8
  %call8 = call noundef i32 @_ZNK6icu_756number4impl15DecimalQuantity6signumEv(ptr noundef nonnull align 8 dereferenceable(66) %7)
  %8 = load i32, ptr %pluralForm, align 4
  %vtable = load ptr, ptr %call7, align 8
  %vfn = getelementptr inbounds ptr, ptr %vtable, i64 2
  %9 = load ptr, ptr %vfn, align 8
  %call9 = call noundef ptr %9(ptr noundef nonnull align 8 dereferenceable(328) %call7, i32 noundef %call8, i32 noundef %8)
  %10 = load ptr, ptr %micros.addr, align 8
  %modMiddle10 = getelementptr inbounds %"struct.icu_75::number::impl::MicroProps", ptr %10, i32 0, i32 10
  store ptr %call9, ptr %modMiddle10, align 8
  br label %if.end

if.end:                                           ; preds = %if.else, %if.then
  ret void
}

; Function Attrs: mustprogress uwtable
define void @_ZNK6icu_756number4impl24ImmutablePatternModifier15processQuantityERNS1_15DecimalQuantityERNS1_10MicroPropsER10UErrorCode(ptr noundef nonnull align 8 dereferenceable(32) %this, ptr noundef nonnull align 8 dereferenceable(66) %quantity, ptr noundef nonnull align 8 dereferenceable(489) %micros, ptr noundef nonnull align 4 dereferenceable(4) %status) unnamed_addr #1 align 2 {
entry:
  %this.addr = alloca ptr, align 8
  %quantity.addr = alloca ptr, align 8
  %micros.addr = alloca ptr, align 8
  %status.addr = alloca ptr, align 8
  store ptr %this, ptr %this.addr, align 8
  store ptr %quantity, ptr %quantity.addr, align 8
  store ptr %micros, ptr %micros.addr, align 8
  store ptr %status, ptr %status.addr, align 8
  %this1 = load ptr, ptr %this.addr, align 8
  %parent = getelementptr inbounds %"class.icu_75::number::impl::ImmutablePatternModifier", ptr %this1, i32 0, i32 3
  %0 = load ptr, ptr %parent, align 8
  %1 = load ptr, ptr %quantity.addr, align 8
  %2 = load ptr, ptr %micros.addr, align 8
  %3 = load ptr, ptr %status.addr, align 8
  %vtable = load ptr, ptr %0, align 8
  %vfn = getelementptr inbounds ptr, ptr %vtable, i64 2
  %4 = load ptr, ptr %vfn, align 8
  call void %4(ptr noundef nonnull align 8 dereferenceable(8) %0, ptr noundef nonnull align 8 dereferenceable(66) %1, ptr noundef nonnull align 8 dereferenceable(489) %2, ptr noundef nonnull align 4 dereferenceable(4) %3)
  %5 = load ptr, ptr %micros.addr, align 8
  %rounder = getelementptr inbounds %"struct.icu_75::number::impl::MicroProps", ptr %5, i32 0, i32 2
  %6 = load ptr, ptr %quantity.addr, align 8
  %7 = load ptr, ptr %status.addr, align 8
  call void @_ZNK6icu_756number4impl12RoundingImpl5applyERNS1_15DecimalQuantityER10UErrorCode(ptr noundef nonnull align 8 dereferenceable(37) %rounder, ptr noundef nonnull align 8 dereferenceable(66) %6, ptr noundef nonnull align 4 dereferenceable(4) %7)
  %8 = load ptr, ptr %micros.addr, align 8
  %modMiddle = getelementptr inbounds %"struct.icu_75::number::impl::MicroProps", ptr %8, i32 0, i32 10
  %9 = load ptr, ptr %modMiddle, align 8
  %cmp = icmp ne ptr %9, null
  br i1 %cmp, label %if.then, label %if.end

if.then:                                          ; preds = %entry
  br label %return

if.end:                                           ; preds = %entry
  %10 = load ptr, ptr %micros.addr, align 8
  %11 = load ptr, ptr %quantity.addr, align 8
  %12 = load ptr, ptr %status.addr, align 8
  call void @_ZNK6icu_756number4impl24ImmutablePatternModifier13applyToMicrosERNS1_10MicroPropsERKNS1_15DecimalQuantityER10UErrorCode(ptr noundef nonnull align 8 dereferenceable(32) %this1, ptr noundef nonnull align 8 dereferenceable(489) %10, ptr noundef nonnull align 8 dereferenceable(66) %11, ptr noundef nonnull align 4 dereferenceable(4) %12)
  br label %return

return:                                           ; preds = %if.end, %if.then
  ret void
}