; Function Attrs: mustprogress uwtable
define void @_ZNK6icu_756number4impl24ImmutablePatternModifier15processQuantityERNS1_15DecimalQuantityERNS1_10MicroPropsER10UErrorCode(ptr nocapture noundef nonnull readonly align 8 dereferenceable(32) %this, ptr noundef nonnull align 8 dereferenceable(66) %quantity, ptr noundef nonnull align 8 dereferenceable(489) %micros, ptr noundef nonnull align 4 dereferenceable(4) %status) unnamed_addr #1 align 2 {
entry:
  %parent = getelementptr inbounds i8, ptr %this, i64 24
  %0 = load ptr, ptr %parent, align 8
  %vtable = load ptr, ptr %0, align 8
  %vfn = getelementptr inbounds i8, ptr %vtable, i64 16
  %1 = load ptr, ptr %vfn, align 8
  tail call void %1(ptr noundef nonnull align 8 dereferenceable(8) %0, ptr noundef nonnull align 8 dereferenceable(66) %quantity, ptr noundef nonnull align 8 dereferenceable(489) %micros, ptr noundef nonnull align 4 dereferenceable(4) %status)
  %rounder = getelementptr inbounds i8, ptr %micros, i64 104
  tail call void @_ZNK6icu_756number4impl12RoundingImpl5applyERNS1_15DecimalQuantityER10UErrorCode(ptr noundef nonnull align 8 dereferenceable(37) %rounder, ptr noundef nonnull align 8 dereferenceable(66) %quantity, ptr noundef nonnull align 4 dereferenceable(4) %status)
  %modMiddle = getelementptr inbounds i8, ptr %micros, i64 200
  %2 = load ptr, ptr %modMiddle, align 8
  %cmp.not = icmp eq ptr %2, null
  br i1 %cmp.not, label %if.end, label %return

if.end:                                           ; preds = %entry
  %rules.i = getelementptr inbounds i8, ptr %this, i64 16
  %3 = load ptr, ptr %rules.i, align 8
  %cmp.i = icmp eq ptr %3, null
  br i1 %cmp.i, label %if.then.i, label %if.else.i

if.then.i:                                        ; preds = %if.end
  %pm.i = getelementptr inbounds i8, ptr %this, i64 8
  %4 = load ptr, ptr %pm.i, align 8
  %call2.i = tail call noundef i32 @_ZNK6icu_756number4impl15DecimalQuantity6signumEv(ptr noundef nonnull align 8 dereferenceable(66) %quantity)
  %mods.i.i.i = getelementptr inbounds i8, ptr %4, i64 216
  %idxprom.i.i.i = zext i32 %call2.i to i64
  %arrayidx.i.i.i = getelementptr inbounds [4 x ptr], ptr %mods.i.i.i, i64 0, i64 %idxprom.i.i.i
  %5 = load ptr, ptr %arrayidx.i.i.i, align 8
  br label %_ZNK6icu_756number4impl24ImmutablePatternModifier13applyToMicrosERNS1_10MicroPropsERKNS1_15DecimalQuantityER10UErrorCode.exit

if.else.i:                                        ; preds = %if.end
  %call5.i = tail call noundef i32 @_ZN6icu_756number4impl5utils13getPluralSafeERKNS1_12RoundingImplEPKNS_11PluralRulesERKNS1_15DecimalQuantityER10UErrorCode(ptr noundef nonnull align 8 dereferenceable(37) %rounder, ptr noundef nonnull %3, ptr noundef nonnull align 8 dereferenceable(66) %quantity, ptr noundef nonnull align 4 dereferenceable(4) %status)
  %pm6.i = getelementptr inbounds i8, ptr %this, i64 8
  %6 = load ptr, ptr %pm6.i, align 8
  %call8.i = tail call noundef i32 @_ZNK6icu_756number4impl15DecimalQuantity6signumEv(ptr noundef nonnull align 8 dereferenceable(66) %quantity)
  %vtable.i = load ptr, ptr %6, align 8
  %vfn.i = getelementptr inbounds i8, ptr %vtable.i, i64 16
  %7 = load ptr, ptr %vfn.i, align 8
  %call9.i = tail call noundef ptr %7(ptr noundef nonnull align 8 dereferenceable(328) %6, i32 noundef %call8.i, i32 noundef %call5.i)
  br label %_ZNK6icu_756number4impl24ImmutablePatternModifier13applyToMicrosERNS1_10MicroPropsERKNS1_15DecimalQuantityER10UErrorCode.exit

_ZNK6icu_756number4impl24ImmutablePatternModifier13applyToMicrosERNS1_10MicroPropsERKNS1_15DecimalQuantityER10UErrorCode.exit: ; preds = %if.then.i, %if.else.i
  %call9.sink.i = phi ptr [ %5, %if.then.i ], [ %call9.i, %if.else.i ]
  store ptr %call9.sink.i, ptr %modMiddle, align 8
  br label %return

return:                                           ; preds = %entry, %_ZNK6icu_756number4impl24ImmutablePatternModifier13applyToMicrosERNS1_10MicroPropsERKNS1_15DecimalQuantityER10UErrorCode.exit
  ret void
}